; Function Attrs: mustprogress nofree nounwind willreturn memory(read, inaccessiblemem: none) uwtable
define hidden noundef zeroext i1 @_ZNK4llvh16FoldingSetNodeIDltERKS0_(ptr nocapture noundef nonnull readonly align 8 dereferenceable(144) %this, ptr nocapture noundef nonnull readonly align 8 dereferenceable(144) %RHS) local_unnamed_addr #1 align 2 {
entry:
  %Size.i = getelementptr inbounds i8, ptr %RHS, i64 8
  %0 = load i32, ptr %Size.i, align 8
  %Size.i.i = getelementptr inbounds i8, ptr %this, i64 8
  %1 = load i32, ptr %Size.i.i, align 8
  %cmp.not.i.i = icmp eq i32 %1, %0
  br i1 %cmp.not.i.i, label %if.end.i.i, label %if.then.i.i

if.then.i.i:                                      ; preds = %entry
  %cmp5.i.i = icmp ult i32 %1, %0
  br label %_ZNK4llvh16FoldingSetNodeIDltENS_19FoldingSetNodeIDRefE.exit

if.end.i.i:                                       ; preds = %entry
  %conv.i = zext i32 %0 to i64
  %2 = load ptr, ptr %RHS, align 8
  %3 = load ptr, ptr %this, align 8
  %mul.i.i = shl nuw nsw i64 %conv.i, 2
  %call.i.i = tail call i32 @memcmp(ptr noundef %3, ptr noundef %2, i64 noundef %mul.i.i) #20
  %cmp8.i.i = icmp slt i32 %call.i.i, 0
  br label %_ZNK4llvh16FoldingSetNodeIDltENS_19FoldingSetNodeIDRefE.exit

_ZNK4llvh16FoldingSetNodeIDltENS_19FoldingSetNodeIDRefE.exit: ; preds = %if.then.i.i, %if.end.i.i
  %retval.0.i.i = phi i1 [ %cmp5.i.i, %if.then.i.i ], [ %cmp8.i.i, %if.end.i.i ]
  ret i1 %retval.0.i.i
}